; Function Attrs: mustprogress nofree norecurse nosync nounwind willreturn memory(read, inaccessiblemem: none) uwtable
define range(i32 0, 2) i32 @Faig_ManIsCorrect(ptr noundef readonly captures(none) %0) local_unnamed_addr #0 {
  %2 = getelementptr i8, ptr %0, i64 32
  %.val = load ptr, ptr %2, align 8, !tbaa !3
  %3 = getelementptr i8, ptr %.val, i64 4
  %.val.val = load i32, ptr %3, align 4, !tbaa !21
  %4 = getelementptr i8, ptr %0, i64 136
  %.val4 = load i32, ptr %4, align 8, !tbaa !23
  %5 = getelementptr i8, ptr %0, i64 148
  %.val5 = load i32, ptr %5, align 4, !tbaa !23
  %6 = getelementptr i8, ptr %0, i64 152
  %.val6 = load i32, ptr %6, align 8, !tbaa !23
  %7 = getelementptr i8, ptr %0, i64 140
  %.val7 = load i32, ptr %7, align 4, !tbaa !23
  %8 = add i32 %.val4, 1
  %9 = add i32 %8, %.val5
  %10 = add i32 %9, %.val6
  %11 = add nsw i32 %10, %.val7
  %12 = icmp eq i32 %.val.val, %11
  %13 = zext i1 %12 to i32
  ret i32 %13
}